target datalayout = "e-m:e-p270:32:32-p271:32:32-p272:64:64-i64:64-i128:128-f80:128-n8:16:32:64-S128"
target triple = "x86_64-pc-linux-gnu"

@hf_bytes = internal global i32 0, align 4
@.str.242 = private unnamed_addr constant [3 x i8] c"%s\00", align 1
@__const.knxip_tree_add_bit.format = private unnamed_addr constant [32 x i8] c".... .... = %s: %d\00\00\00\00\00\00\00\00\00\00\00\00\00\00", align 16
@.str.366 = private unnamed_addr constant [4 x i8] c" | \00", align 1

; Function Attrs: null_pointer_is_valid sspstrong uwtable
define internal ptr @knxip_tree_add_bit(ptr noundef %0, ptr noundef %1, i32 noundef %2, i32 noundef %3, ptr noundef %4, ptr noundef %5, i32 noundef %6) #0 {
  %8 = alloca ptr, align 8
  %9 = alloca ptr, align 8
  %10 = alloca i32, align 4
  %11 = alloca i32, align 4
  %12 = alloca ptr, align 8
  %13 = alloca ptr, align 8
  %14 = alloca i32, align 4
  %15 = alloca [32 x i8], align 16
  %16 = alloca i8, align 1
  store ptr %0, ptr %8, align 8
  store ptr %1, ptr %9, align 8
  store i32 %2, ptr %10, align 4
  store i32 %3, ptr %11, align 4
  store ptr %4, ptr %12, align 8
  store ptr %5, ptr %13, align 8
  store i32 %6, ptr %14, align 4
  call void @llvm.lifetime.start.p0(i64 32, ptr %15) #9
  call void @llvm.memcpy.p0.p0.i64(ptr align 16 %15, ptr align 16 @__const.knxip_tree_add_bit.format, i64 32, i1 false)
  call void @llvm.lifetime.start.p0(i64 1, ptr %16) #9
  %17 = load ptr, ptr %9, align 8
  %18 = load i32, ptr %10, align 4
  %19 = call zeroext i8 @tvb_get_uint8(ptr noundef %17, i32 noundef %18)
  %20 = zext i8 %19 to i32
  %21 = load i32, ptr %11, align 4
  %22 = ashr i32 %20, %21
  %23 = and i32 %22, 1
  %24 = trunc i32 %23 to i8
  store i8 %24, ptr %16, align 1
  %25 = load i8, ptr %16, align 1
  %26 = zext i8 %25 to i32
  %27 = add i32 48, %26
  %28 = trunc i32 %27 to i8
  %29 = load i32, ptr %11, align 4
  %30 = sub i32 7, %29
  %31 = load i32, ptr %11, align 4
  %32 = icmp slt i32 %31, 4
  %33 = zext i1 %32 to i32
  %34 = add i32 %30, %33
  %35 = sext i32 %34 to i64
  %36 = getelementptr [32 x i8], ptr %15, i64 0, i64 %35
  store i8 %28, ptr %36, align 1
  %37 = load i8, ptr %16, align 1
  %38 = zext i8 %37 to i32
  %39 = icmp ne i32 %38, 0
  br i1 %39, label %40, label %82

40:                                               ; preds = %7
  %41 = load ptr, ptr %13, align 8
  %42 = icmp ne ptr %41, null
  br i1 %42, label %43, label %82

43:                                               ; preds = %40
  %44 = load ptr, ptr %13, align 8
  %45 = load i8, ptr %44, align 1
  %46 = icmp ne i8 %45, 0
  br i1 %46, label %47, label %74

47:                                               ; preds = %43
  br label %48

48:                                               ; preds = %53, %47
  %49 = load ptr, ptr %13, align 8
  %50 = getelementptr i8, ptr %49, i32 1
  store ptr %50, ptr %13, align 8
  %51 = load i32, ptr %14, align 4
  %52 = add i32 %51, -1
  store i32 %52, ptr %14, align 4
  br label %53

53:                                               ; preds = %48
  %54 = load ptr, ptr %13, align 8
  %55 = load i8, ptr %54, align 1
  %56 = icmp ne i8 %55, 0
  br i1 %56, label %48, label %57, !llvm.loop !30

57:                                               ; preds = %53
  %58 = load ptr, ptr %13, align 8
  %59 = load i32, ptr %14, align 4
  %60 = sext i32 %59 to i64
  %61 = load ptr, ptr %13, align 8
  %62 = call i64 @llvm.objectsize.i64.p0(ptr %61, i1 false, i1 true, i1 true)
  %63 = call i32 (ptr, i64, i32, i64, ptr, ...) @__snprintf_chk(ptr noundef %58, i64 noundef %60, i32 noundef 2, i64 noundef %62, ptr noundef @.str.366)
  br label %64

64:                                               ; preds = %68, %57
  %65 = load ptr, ptr %13, align 8
  %66 = load i8, ptr %65, align 1
  %67 = icmp ne i8 %66, 0
  br i1 %67, label %68, label %73

68:                                               ; preds = %64
  %69 = load ptr, ptr %13, align 8
  %70 = getelementptr i8, ptr %69, i32 1
  store ptr %70, ptr %13, align 8
  %71 = load i32, ptr %14, align 4
  %72 = add i32 %71, -1
  store i32 %72, ptr %14, align 4
  br label %64, !llvm.loop !31

73:                                               ; preds = %64
  br label %74

74:                                               ; preds = %73, %43
  %75 = load ptr, ptr %13, align 8
  %76 = load i32, ptr %14, align 4
  %77 = sext i32 %76 to i64
  %78 = load ptr, ptr %13, align 8
  %79 = call i64 @llvm.objectsize.i64.p0(ptr %78, i1 false, i1 true, i1 true)
  %80 = load ptr, ptr %12, align 8
  %81 = call i32 (ptr, i64, i32, i64, ptr, ...) @__snprintf_chk(ptr noundef %75, i64 noundef %77, i32 noundef 2, i64 noundef %79, ptr noundef @.str.242, ptr noundef %80)
  br label %82

82:                                               ; preds = %74, %40, %7
  %83 = load ptr, ptr %8, align 8
  %84 = load i32, ptr @hf_bytes, align 4
  %85 = load ptr, ptr %9, align 8
  %86 = load i32, ptr %10, align 4
  %87 = getelementptr inbounds [32 x i8], ptr %15, i64 0, i64 0
  %88 = load ptr, ptr %12, align 8
  %89 = load i8, ptr %16, align 1
  %90 = zext i8 %89 to i32
  %91 = call ptr (ptr, i32, ptr, i32, i32, ptr, ptr, ...) @proto_tree_add_bytes_format(ptr noundef %83, i32 noundef %84, ptr noundef %85, i32 noundef %86, i32 noundef 1, ptr noundef null, ptr noundef %87, ptr noundef %88, i32 noundef %90)
  call void @llvm.lifetime.end.p0(i64 1, ptr %16) #9
  call void @llvm.lifetime.end.p0(i64 32, ptr %15) #9
  ret ptr %91
}