; Function Attrs: null_pointer_is_valid sspstrong uwtable
define internal fastcc void @knxip_tree_add_bit(ptr noundef %0, ptr noundef %1, i32 noundef %2, i32 noundef range(i32 0, 6) %3, ptr noundef %4, ptr noundef %5, i32 noundef range(i32 0, 129) %6) unnamed_addr #0 {
  %8 = alloca [32 x i8], align 16
  call void @llvm.lifetime.start.p0(i64 32, ptr nonnull %8) #11
  call void @llvm.memcpy.p0.p0.i64(ptr noundef nonnull align 16 dereferenceable(32) %8, ptr noundef nonnull align 16 dereferenceable(32) @__const.knxip_tree_add_bit.format, i64 32, i1 false)
  %9 = tail call zeroext i8 @tvb_get_uint8(ptr noundef %1, i32 noundef %2)
  %10 = zext i8 %9 to i32
  %11 = lshr i32 %10, %3
  %12 = and i32 %11, 1
  %13 = trunc nuw nsw i32 %12 to i8
  %14 = or disjoint i8 %13, 48
  %15 = xor i32 %3, 7
  %16 = icmp samesign ult i32 %3, 4
  %17 = zext i1 %16 to i32
  %18 = add nuw nsw i32 %15, %17
  %19 = zext nneg i32 %18 to i64
  %20 = getelementptr [32 x i8], ptr %8, i64 0, i64 %19
  store i8 %14, ptr %20, align 1
  %21 = icmp ne i32 %12, 0
  %22 = icmp ne ptr %5, null
  %or.cond = and i1 %22, %21
  br i1 %or.cond, label %23, label %37

23:                                               ; preds = %7
  %24 = load i8, ptr %5, align 1
  %.not = icmp eq i8 %24, 0
  br i1 %.not, label %.loopexit, label %.preheader

.preheader:                                       ; preds = %23, %.preheader
  %.128 = phi i32 [ %26, %.preheader ], [ %6, %23 ]
  %.1 = phi ptr [ %25, %.preheader ], [ %5, %23 ]
  %25 = getelementptr i8, ptr %.1, i64 1
  %26 = add i32 %.128, -1
  %27 = load i8, ptr %25, align 1
  %.not31 = icmp eq i8 %27, 0
  br i1 %.not31, label %28, label %.preheader, !llvm.loop !34

28:                                               ; preds = %.preheader
  %29 = sext i32 %26 to i64
  %30 = tail call i32 (ptr, i64, i32, i64, ptr, ...) @__snprintf_chk(ptr noundef %25, i64 noundef %29, i32 noundef 2, i64 noundef -1, ptr noundef nonnull @.str.366)
  %31 = load i8, ptr %25, align 1
  %.not3234 = icmp eq i8 %31, 0
  br i1 %.not3234, label %.loopexit, label %.lr.ph

.lr.ph:                                           ; preds = %28, %.lr.ph
  %.236 = phi ptr [ %32, %.lr.ph ], [ %25, %28 ]
  %.22935 = phi i32 [ %33, %.lr.ph ], [ %26, %28 ]
  %32 = getelementptr i8, ptr %.236, i64 1
  %33 = add i32 %.22935, -1
  %34 = load i8, ptr %32, align 1
  %.not32 = icmp eq i8 %34, 0
  br i1 %.not32, label %.loopexit, label %.lr.ph, !llvm.loop !35

.loopexit:                                        ; preds = %.lr.ph, %28, %23
  %.027 = phi i32 [ %6, %23 ], [ %26, %28 ], [ %33, %.lr.ph ]
  %.0 = phi ptr [ %5, %23 ], [ %25, %28 ], [ %32, %.lr.ph ]
  %35 = sext i32 %.027 to i64
  %36 = tail call i32 (ptr, i64, i32, i64, ptr, ...) @__snprintf_chk(ptr noundef %.0, i64 noundef %35, i32 noundef 2, i64 noundef -1, ptr noundef nonnull @.str.242, ptr noundef %4)
  br label %37

37:                                               ; preds = %.loopexit, %7
  %38 = load i32, ptr @hf_bytes, align 4
  %39 = call ptr (ptr, i32, ptr, i32, i32, ptr, ptr, ...) @proto_tree_add_bytes_format(ptr noundef %0, i32 noundef %38, ptr noundef %1, i32 noundef %2, i32 noundef 1, ptr noundef null, ptr noundef nonnull %8, ptr noundef %4, i32 noundef %12)
  call void @llvm.lifetime.end.p0(i64 32, ptr nonnull %8) #11
  ret void
}